Certificate:
    Data:
        Version: 3 (0x2)
        Serial Number: 1 (0x1)
        Signature Algorithm: sha256WithRSAEncryption
        Issuer: CN=Test CA
        Validity
            Not Before: Dec 25 19:24:17 2025 GMT
            Not After : Dec 25 19:24:17 2026 GMT
        Subject: CN=Revoked Cert
        Subject Public Key Info:
            Public Key Algorithm: rsaEncryption
                Public-Key: (2048 bit)
                Modulus:
                    00:b5:3d:cd:d6:ac:b3:07:5c:b5:f6:f6:ae:ae:17:
                    e0:18:ae:4e:1a:35:a6:95:11:ac:7e:26:cd:5e:46:
                    6f:f9:ef:04:aa:a4:41:41:2f:c1:3c:f5:8e:aa:48:
                    90:f6:41:09:eb:bc:fa:7c:3b:6e:50:9a:ed:b1:b0:
                    57:38:c5:27:ff:85:a1:8a:90:21:c8:6e:a0:08:d2:
                    9d:72:67:21:94:0c:09:c7:a7:0c:3c:75:a4:fd:50:
                    cf:f6:3a:56:89:b6:0b:7a:bd:3e:e2:3c:97:39:58:
                    cf:dd:08:76:44:c7:bc:44:a6:a7:73:69:bd:63:7f:
                    bd:8c:25:31:dc:11:df:02:30:90:b6:85:8a:b4:1a:
                    f9:18:70:38:71:a5:f8:56:9b:64:9f:c5:5b:45:37:
                    72:19:69:b4:3b:5a:63:91:7d:04:95:07:44:d9:ce:
                    1a:38:be:a3:de:1f:a4:69:87:45:50:b4:20:8a:e8:
                    e3:c8:ac:b8:5e:38:80:3e:a3:15:b9:87:cb:e9:fb:
                    40:32:5f:7b:a2:d6:a4:e2:ed:c0:91:ce:af:3c:0d:
                    19:d9:2d:c6:9a:5b:2a:ad:5d:07:5a:4c:1f:4a:27:
                    b5:c5:1a:5f:eb:9c:b4:be:0d:60:da:89:25:57:fa:
                    d2:d3:df:36:03:8b:81:69:a4:5c:64:65:f8:73:f3:
                    f3:1f
                Exponent: 65537 (0x10001)
        X509v3 extensions:
            X509v3 Subject Key Identifier: 
                A8:A6:F4:4C:19:EE:26:60:A1:93:3E:48:52:72:BF:4E:1A:00:E0:36
            X509v3 Authority Key Identifier: 
                C3:13:1D:B4:78:52:A9:E2:0F:2E:C7:76:3A:81:00:0F:62:3F:75:E8
    Signature Algorithm: sha256WithRSAEncryption
    Signature Value:
        3f:8c:b2:b0:6e:8d:83:ed:54:36:01:40:5f:1f:95:f8:56:81:
        8b:88:3d:05:6b:6f:56:4f:28:f9:ff:a6:b8:82:aa:5d:c1:cb:
        fe:d3:62:5c:1e:0c:00:91:aa:37:6f:16:70:59:a4:74:ce:ef:
        3a:7f:8e:bf:b1:b2:fa:0f:ce:74:e5:73:95:35:af:70:a8:3d:
        15:41:2d:c6:4a:12:33:7c:73:57:d1:74:f2:ce:09:4e:26:54:
        eb:f0:d5:02:78:1f:cf:aa:12:a9:24:2d:b6:9b:3b:cc:48:86:
        23:2e:67:a3:8f:d6:68:3e:e2:ef:a6:31:20:b0:0a:5f:bc:27:
        9b:e5:dd:01:81:31:dc:0a:12:52:fa:99:3c:21:5f:f7:07:6e:
        90:d4:ca:d4:f8:2c:61:31:8b:85:9b:37:77:23:3a:41:cd:45:
        62:31:02:0a:14:a9:8a:54:62:7c:6f:a7:b9:ad:5c:d9:84:9b:
        7e:02:a8:04:10:ba:7e:8f:e4:08:51:48:8f:b9:a1:bd:3e:86:
        89:82:34:b1:c7:db:24:6b:5d:66:24:bc:0a:94:cd:13:82:a1:
        30:ca:1c:39:f3:cb:a1:60:dc:10:01:71:74:1b:93:be:3f:64:
        7b:58:0d:b4:d2:d9:38:39:49:c6:cf:cd:0b:e5:98:59:9c:16:
        21:6e:42:a2
-----BEGIN CERTIFICATE-----
MIIC5jCCAc6gAwIBAgIBATANBgkqhkiG9w0BAQsFADASMRAwDgYDVQQDDAdUZXN0
IENBMB4XDTI1MTIyNTE5MjQxN1oXDTI2MTIyNTE5MjQxN1owFzEVMBMGA1UEAwwM
UmV2b2tlZCBDZXJ0MIIBIjANBgkqhkiG9w0BAQEFAAOCAQ8AMIIBCgKCAQEAtT3N
1qyzB1y19vaurhfgGK5OGjWmlRGsfibNXkZv+e8EqqRBQS/BPPWOqkiQ9kEJ67z6
fDtuUJrtsbBXOMUn/4WhipAhyG6gCNKdcmchlAwJx6cMPHWk/VDP9jpWibYLer0+
4jyXOVjP3Qh2RMe8RKanc2m9Y3+9jCUx3BHfAjCQtoWKtBr5GHA4caX4Vptkn8Vb
RTdyGWm0O1pjkX0ElQdE2c4aOL6j3h+kaYdFULQgiujjyKy4XjiAPqMVuYfL6ftA
Ml97otak4u3Akc6vPA0Z2S3GmlsqrV0HWkwfSie1xRpf65y0vg1g2oklV/rS0982
A4uBaaRcZGX4c/PzHwIDAQABo0IwQDAdBgNVHQ4EFgQUqKb0TBnuJmChkz5IUnK/
ThoA4DYwHwYDVR0jBBgwFoAUwxMdtHhSqeIPLsd2OoEAD2I/degwDQYJKoZIhvcN
AQELBQADggEBAD+MsrBujYPtVDYBQF8flfhWgYuIPQVrb1ZPKPn/priCql3By/7T
YlweDACRqjdvFnBZpHTO7zp/jr+xsvoPznTlc5U1r3CoPRVBLcZKEjN8c1fRdPLO
CU4mVOvw1QJ4H8+qEqkkLbabO8xIhiMuZ6OP1mg+4u+mMSCwCl+8J5vl3QGBMdwK
ElL6mTwhX/cHbpDUytT4LGExi4WbN3cjOkHNRWIxAgoUqYpUYnxvp7mtXNmEm34C
qAQQun6P5AhRSI+5ob0+homCNLHH2yRrXWYkvAqUzROCoTDKHDnzy6Fg3BABcXQb
k74/ZHtYDbTS2Tg5ScbPzQvlmFmcFiFuQqI=
-----END CERTIFICATE-----
